target datalayout = "e-m:e-p270:32:32-p271:32:32-p272:64:64-i64:64-f80:128-n8:16:32:64-S128"
target triple = "x86_64-pc-linux-gnu"

%struct.student = type { [20 x i8], i32, i32, i8, i8, i32, i32 }

@.str = private unnamed_addr constant [3 x i8] c"%d\00", align 1
@.str.1 = private unnamed_addr constant [18 x i8] c"%s %d %d %c %c %d\00", align 1
@.str.2 = private unnamed_addr constant [4 x i8] c"%s\0A\00", align 1
@.str.3 = private unnamed_addr constant [4 x i8] c"%d\0A\00", align 1

; Function Attrs: noinline nounwind uwtable
define dso_local void @main() #0 {
  %1 = alloca i32, align 4
  %2 = alloca i32, align 4
  %3 = alloca i32, align 4
  %4 = alloca i32, align 4
  %5 = alloca i32, align 4
  %6 = alloca i32, align 4
  %7 = alloca i32, align 4
  %8 = alloca i32, align 4
  %9 = alloca i32, align 4
  %10 = alloca i32, align 4
  %11 = alloca [100 x %struct.student], align 16
  store i32 0, i32* %3, align 4
  store i32 0, i32* %4, align 4
  store i32 0, i32* %5, align 4
  store i32 0, i32* %6, align 4
  store i32 0, i32* %7, align 4
  store i32 0, i32* %8, align 4
  store i32 0, i32* %9, align 4
  store i32 0, i32* %10, align 4
  %12 = bitcast [100 x %struct.student]* %11 to i8*
  call void @llvm.memset.p0i8.i64(i8* align 16 %12, i8 0, i64 4000, i1 false)
  %13 = call i32 (i8*, ...) @__isoc99_scanf(i8* getelementptr inbounds ([3 x i8], [3 x i8]* @.str, i64 0, i64 0), i32* %2)
  store i32 0, i32* %1, align 4
  br label %14

14:                                               ; preds = %45, %0
  %15 = load i32, i32* %1, align 4
  %16 = load i32, i32* %2, align 4
  %17 = icmp slt i32 %15, %16
  br i1 %17, label %18, label %48

18:                                               ; preds = %14
  %19 = load i32, i32* %1, align 4
  %20 = sext i32 %19 to i64
  %21 = getelementptr inbounds [100 x %struct.student], [100 x %struct.student]* %11, i64 0, i64 %20
  %22 = getelementptr inbounds %struct.student, %struct.student* %21, i32 0, i32 0
  %23 = getelementptr inbounds [20 x i8], [20 x i8]* %22, i64 0, i64 0
  %24 = load i32, i32* %1, align 4
  %25 = sext i32 %24 to i64
  %26 = getelementptr inbounds [100 x %struct.student], [100 x %struct.student]* %11, i64 0, i64 %25
  %27 = getelementptr inbounds %struct.student, %struct.student* %26, i32 0, i32 1
  %28 = load i32, i32* %1, align 4
  %29 = sext i32 %28 to i64
  %30 = getelementptr inbounds [100 x %struct.student], [100 x %struct.student]* %11, i64 0, i64 %29
  %31 = getelementptr inbounds %struct.student, %struct.student* %30, i32 0, i32 2
  %32 = load i32, i32* %1, align 4
  %33 = sext i32 %32 to i64
  %34 = getelementptr inbounds [100 x %struct.student], [100 x %struct.student]* %11, i64 0, i64 %33
  %35 = getelementptr inbounds %struct.student, %struct.student* %34, i32 0, i32 3
  %36 = load i32, i32* %1, align 4
  %37 = sext i32 %36 to i64
  %38 = getelementptr inbounds [100 x %struct.student], [100 x %struct.student]* %11, i64 0, i64 %37
  %39 = getelementptr inbounds %struct.student, %struct.student* %38, i32 0, i32 4
  %40 = load i32, i32* %1, align 4
  %41 = sext i32 %40 to i64
  %42 = getelementptr inbounds [100 x %struct.student], [100 x %struct.student]* %11, i64 0, i64 %41
  %43 = getelementptr inbounds %struct.student, %struct.student* %42, i32 0, i32 5
  %44 = call i32 (i8*, ...) @__isoc99_scanf(i8* getelementptr inbounds ([18 x i8], [18 x i8]* @.str.1, i64 0, i64 0), i8* %23, i32* %27, i32* %31, i8* %35, i8* %39, i32* %43)
  br label %45

45:                                               ; preds = %18
  %46 = load i32, i32* %1, align 4
  %47 = add nsw i32 %46, 1
  store i32 %47, i32* %1, align 4
  br label %14

48:                                               ; preds = %14
  store i32 0, i32* %1, align 4
  br label %49

49:                                               ; preds = %137, %48
  %50 = load i32, i32* %1, align 4
  %51 = load i32, i32* %2, align 4
  %52 = icmp slt i32 %50, %51
  br i1 %52, label %53, label %140

53:                                               ; preds = %49
  %54 = load i32, i32* %1, align 4
  %55 = sext i32 %54 to i64
  %56 = getelementptr inbounds [100 x %struct.student], [100 x %struct.student]* %11, i64 0, i64 %55
  %57 = getelementptr inbounds %struct.student, %struct.student* %56, i32 0, i32 1
  %58 = load i32, i32* %57, align 4
  %59 = icmp sgt i32 %58, 80
  br i1 %59, label %60, label %68

60:                                               ; preds = %53
  %61 = load i32, i32* %1, align 4
  %62 = sext i32 %61 to i64
  %63 = getelementptr inbounds [100 x %struct.student], [100 x %struct.student]* %11, i64 0, i64 %62
  %64 = getelementptr inbounds %struct.student, %struct.student* %63, i32 0, i32 5
  %65 = load i32, i32* %64, align 8
  %66 = icmp sgt i32 %65, 0
  br i1 %66, label %67, label %68

67:                                               ; preds = %60
  store i32 8000, i32* %3, align 4
  br label %68

68:                                               ; preds = %67, %60, %53
  %69 = load i32, i32* %1, align 4
  %70 = sext i32 %69 to i64
  %71 = getelementptr inbounds [100 x %struct.student], [100 x %struct.student]* %11, i64 0, i64 %70
  %72 = getelementptr inbounds %struct.student, %struct.student* %71, i32 0, i32 1
  %73 = load i32, i32* %72, align 4
  %74 = icmp sgt i32 %73, 85
  br i1 %74, label %75, label %83

75:                                               ; preds = %68
  %76 = load i32, i32* %1, align 4
  %77 = sext i32 %76 to i64
  %78 = getelementptr inbounds [100 x %struct.student], [100 x %struct.student]* %11, i64 0, i64 %77
  %79 = getelementptr inbounds %struct.student, %struct.student* %78, i32 0, i32 2
  %80 = load i32, i32* %79, align 8
  %81 = icmp sgt i32 %80, 80
  br i1 %81, label %82, label %83

82:                                               ; preds = %75
  store i32 4000, i32* %4, align 4
  br label %83

83:                                               ; preds = %82, %75, %68
  %84 = load i32, i32* %1, align 4
  %85 = sext i32 %84 to i64
  %86 = getelementptr inbounds [100 x %struct.student], [100 x %struct.student]* %11, i64 0, i64 %85
  %87 = getelementptr inbounds %struct.student, %struct.student* %86, i32 0, i32 1
  %88 = load i32, i32* %87, align 4
  %89 = icmp sgt i32 %88, 90
  br i1 %89, label %90, label %91

90:                                               ; preds = %83
  store i32 2000, i32* %5, align 4
  br label %91

91:                                               ; preds = %90, %83
  %92 = load i32, i32* %1, align 4
  %93 = sext i32 %92 to i64
  %94 = getelementptr inbounds [100 x %struct.student], [100 x %struct.student]* %11, i64 0, i64 %93
  %95 = getelementptr inbounds %struct.student, %struct.student* %94, i32 0, i32 1
  %96 = load i32, i32* %95, align 4
  %97 = icmp sgt i32 %96, 85
  br i1 %97, label %98, label %107

98:                                               ; preds = %91
  %99 = load i32, i32* %1, align 4
  %100 = sext i32 %99 to i64
  %101 = getelementptr inbounds [100 x %struct.student], [100 x %struct.student]* %11, i64 0, i64 %100
  %102 = getelementptr inbounds %struct.student, %struct.student* %101, i32 0, i32 4
  %103 = load i8, i8* %102, align 1
  %104 = sext i8 %103 to i32
  %105 = icmp eq i32 %104, 89
  br i1 %105, label %106, label %107

106:                                              ; preds = %98
  store i32 1000, i32* %6, align 4
  br label %107

107:                                              ; preds = %106, %98, %91
  %108 = load i32, i32* %1, align 4
  %109 = sext i32 %108 to i64
  %110 = getelementptr inbounds [100 x %struct.student], [100 x %struct.student]* %11, i64 0, i64 %109
  %111 = getelementptr inbounds %struct.student, %struct.student* %110, i32 0, i32 2
  %112 = load i32, i32* %111, align 8
  %113 = icmp sgt i32 %112, 80
  br i1 %113, label %114, label %123

114:                                              ; preds = %107
  %115 = load i32, i32* %1, align 4
  %116 = sext i32 %115 to i64
  %117 = getelementptr inbounds [100 x %struct.student], [100 x %struct.student]* %11, i64 0, i64 %116
  %118 = getelementptr inbounds %struct.student, %struct.student* %117, i32 0, i32 3
  %119 = load i8, i8* %118, align 4
  %120 = sext i8 %119 to i32
  %121 = icmp eq i32 %120, 89
  br i1 %121, label %122, label %123

122:                                              ; preds = %114
  store i32 850, i32* %7, align 4
  br label %123

123:                                              ; preds = %122, %114, %107
  %124 = load i32, i32* %3, align 4
  %125 = load i32, i32* %4, align 4
  %126 = add nsw i32 %124, %125
  %127 = load i32, i32* %5, align 4
  %128 = add nsw i32 %126, %127
  %129 = load i32, i32* %6, align 4
  %130 = add nsw i32 %128, %129
  %131 = load i32, i32* %7, align 4
  %132 = add nsw i32 %130, %131
  %133 = load i32, i32* %1, align 4
  %134 = sext i32 %133 to i64
  %135 = getelementptr inbounds [100 x %struct.student], [100 x %struct.student]* %11, i64 0, i64 %134
  %136 = getelementptr inbounds %struct.student, %struct.student* %135, i32 0, i32 6
  store i32 %132, i32* %136, align 4
  store i32 0, i32* %7, align 4
  store i32 0, i32* %6, align 4
  store i32 0, i32* %5, align 4
  store i32 0, i32* %4, align 4
  store i32 0, i32* %3, align 4
  br label %137

137:                                              ; preds = %123
  %138 = load i32, i32* %1, align 4
  %139 = add nsw i32 %138, 1
  store i32 %139, i32* %1, align 4
  br label %49

140:                                              ; preds = %49
  %141 = getelementptr inbounds [100 x %struct.student], [100 x %struct.student]* %11, i64 0, i64 0
  %142 = getelementptr inbounds %struct.student, %struct.student* %141, i32 0, i32 6
  %143 = load i32, i32* %142, align 4
  store i32 %143, i32* %8, align 4
  store i32 0, i32* %1, align 4
  br label %144

144:                                              ; preds = %164, %140
  %145 = load i32, i32* %1, align 4
  %146 = load i32, i32* %2, align 4
  %147 = icmp slt i32 %145, %146
  br i1 %147, label %148, label %167

148:                                              ; preds = %144
  %149 = load i32, i32* %1, align 4
  %150 = sext i32 %149 to i64
  %151 = getelementptr inbounds [100 x %struct.student], [100 x %struct.student]* %11, i64 0, i64 %150
  %152 = getelementptr inbounds %struct.student, %struct.student* %151, i32 0, i32 6
  %153 = load i32, i32* %152, align 4
  %154 = load i32, i32* %8, align 4
  %155 = icmp sgt i32 %153, %154
  br i1 %155, label %156, label %163

156:                                              ; preds = %148
  %157 = load i32, i32* %1, align 4
  %158 = sext i32 %157 to i64
  %159 = getelementptr inbounds [100 x %struct.student], [100 x %struct.student]* %11, i64 0, i64 %158
  %160 = getelementptr inbounds %struct.student, %struct.student* %159, i32 0, i32 6
  %161 = load i32, i32* %160, align 4
  store i32 %161, i32* %8, align 4
  %162 = load i32, i32* %1, align 4
  store i32 %162, i32* %9, align 4
  br label %163

163:                                              ; preds = %156, %148
  br label %164

164:                                              ; preds = %163
  %165 = load i32, i32* %1, align 4
  %166 = add nsw i32 %165, 1
  store i32 %166, i32* %1, align 4
  br label %144

167:                                              ; preds = %144
  store i32 0, i32* %1, align 4
  br label %168

168:                                              ; preds = %180, %167
  %169 = load i32, i32* %1, align 4
  %170 = load i32, i32* %2, align 4
  %171 = icmp slt i32 %169, %170
  br i1 %171, label %172, label %183

172:                                              ; preds = %168
  %173 = load i32, i32* %10, align 4
  %174 = load i32, i32* %1, align 4
  %175 = sext i32 %174 to i64
  %176 = getelementptr inbounds [100 x %struct.student], [100 x %struct.student]* %11, i64 0, i64 %175
  %177 = getelementptr inbounds %struct.student, %struct.student* %176, i32 0, i32 6
  %178 = load i32, i32* %177, align 4
  %179 = add nsw i32 %173, %178
  store i32 %179, i32* %10, align 4
  br label %180

180:                                              ; preds = %172
  %181 = load i32, i32* %1, align 4
  %182 = add nsw i32 %181, 1
  store i32 %182, i32* %1, align 4
  br label %168

183:                                              ; preds = %168
  %184 = load i32, i32* %9, align 4
  %185 = sext i32 %184 to i64
  %186 = getelementptr inbounds [100 x %struct.student], [100 x %struct.student]* %11, i64 0, i64 %185
  %187 = getelementptr inbounds %struct.student, %struct.student* %186, i32 0, i32 0
  %188 = getelementptr inbounds [20 x i8], [20 x i8]* %187, i64 0, i64 0
  %189 = call i32 (i8*, ...) @printf(i8* getelementptr inbounds ([4 x i8], [4 x i8]* @.str.2, i64 0, i64 0), i8* %188)
  %190 = load i32, i32* %9, align 4
  %191 = sext i32 %190 to i64
  %192 = getelementptr inbounds [100 x %struct.student], [100 x %struct.student]* %11, i64 0, i64 %191
  %193 = getelementptr inbounds %struct.student, %struct.student* %192, i32 0, i32 6
  %194 = load i32, i32* %193, align 4
  %195 = call i32 (i8*, ...) @printf(i8* getelementptr inbounds ([4 x i8], [4 x i8]* @.str.3, i64 0, i64 0), i32 %194)
  %196 = load i32, i32* %10, align 4
  %197 = call i32 (i8*, ...) @printf(i8* getelementptr inbounds ([3 x i8], [3 x i8]* @.str, i64 0, i64 0), i32 %196)
  ret void
}